; Function Attrs: mustprogress uwtable
define noundef zeroext i1 @_ZN4base8EndsWithENS_16BasicStringPieceINSt7__cxx1112basic_stringIcSt11char_traitsIcESaIcEEEEES7_NS_11CompareCaseE(ptr %0, i64 %1, ptr %2, i64 %3, i32 noundef %4) local_unnamed_addr #3 {
  %6 = alloca %"class.base::BasicStringPiece", align 8
  %7 = alloca %"class.base::BasicStringPiece", align 8
  %8 = alloca %"class.base::BasicStringPiece", align 8
  call void @llvm.lifetime.start.p0(i64 16, ptr nonnull %6)
  call void @llvm.lifetime.start.p0(i64 16, ptr nonnull %7)
  store ptr %0, ptr %6, align 8
  %9 = getelementptr inbounds nuw i8, ptr %6, i64 8
  store i64 %1, ptr %9, align 8
  store ptr %2, ptr %7, align 8
  %10 = getelementptr inbounds nuw i8, ptr %7, i64 8
  store i64 %3, ptr %10, align 8
  %11 = icmp ugt i64 %3, %1
  br i1 %11, label %_ZN4base9EndsWithTINSt7__cxx1112basic_stringIcSt11char_traitsIcESaIcEEEEEbNS_16BasicStringPieceIT_EES9_NS_11CompareCaseE.exit, label %12

12:                                               ; preds = %5
  call void @llvm.lifetime.start.p0(i64 16, ptr nonnull %8) #28
  %13 = sub nuw i64 %1, %3
  %14 = call { ptr, i64 } @_ZN4base8internal6substrERKNS_16BasicStringPieceINSt7__cxx1112basic_stringIcSt11char_traitsIcESaIcEEEEEmm(ptr noundef nonnull align 8 dereferenceable(16) %6, i64 noundef %13, i64 noundef %3)
  %15 = extractvalue { ptr, i64 } %14, 0
  store ptr %15, ptr %8, align 8
  %16 = getelementptr inbounds nuw i8, ptr %8, i64 8
  %17 = extractvalue { ptr, i64 } %14, 1
  store i64 %17, ptr %16, align 8
  switch i32 %4, label %_ZSt5equalIPKcS1_N4base27CaseInsensitiveCompareASCIIIcEEEbT_S5_T0_T1_.exit.i [
    i32 0, label %18
    i32 1, label %20
  ]

18:                                               ; preds = %12
  %19 = call noundef zeroext i1 @_ZN4baseeqERKNS_16BasicStringPieceINSt7__cxx1112basic_stringIcSt11char_traitsIcESaIcEEEEES9_(ptr noundef nonnull align 8 dereferenceable(16) %8, ptr noundef nonnull align 8 dereferenceable(16) %7)
  br label %_ZSt5equalIPKcS1_N4base27CaseInsensitiveCompareASCIIIcEEEbT_S5_T0_T1_.exit.i

20:                                               ; preds = %12
  %21 = getelementptr inbounds nuw i8, ptr %15, i64 %17
  %.not9.i.i = icmp samesign eq i64 %17, 0
  br i1 %.not9.i.i, label %_ZSt5equalIPKcS1_N4base27CaseInsensitiveCompareASCIIIcEEEbT_S5_T0_T1_.exit.i, label %.lr.ph.i.i

.lr.ph.i.i:                                       ; preds = %20, %.lr.ph.i.i
  %.011.i.i = phi ptr [ %32, %.lr.ph.i.i ], [ %2, %20 ]
  %.0810.i.i = phi ptr [ %31, %.lr.ph.i.i ], [ %15, %20 ]
  %22 = load i8, ptr %.0810.i.i, align 1, !tbaa !20
  %23 = load i8, ptr %.011.i.i, align 1, !tbaa !20
  %24 = add i8 %22, -65
  %or.cond.i.i.i.i = icmp ult i8 %24, 26
  %25 = add nuw nsw i8 %22, 32
  %26 = select i1 %or.cond.i.i.i.i, i8 %25, i8 %22
  %27 = add i8 %23, -65
  %or.cond.i2.i.i.i = icmp ult i8 %27, 26
  %28 = add nuw nsw i8 %23, 32
  %29 = select i1 %or.cond.i2.i.i.i, i8 %28, i8 %23
  %30 = icmp eq i8 %26, %29
  %31 = getelementptr inbounds nuw i8, ptr %.0810.i.i, i64 1
  %32 = getelementptr inbounds nuw i8, ptr %.011.i.i, i64 1
  %.not.i.i = icmp ne ptr %31, %21
  %or.cond.not = select i1 %30, i1 %.not.i.i, i1 false
  br i1 %or.cond.not, label %.lr.ph.i.i, label %_ZSt5equalIPKcS1_N4base27CaseInsensitiveCompareASCIIIcEEEbT_S5_T0_T1_.exit.i, !llvm.loop !98

_ZSt5equalIPKcS1_N4base27CaseInsensitiveCompareASCIIIcEEEbT_S5_T0_T1_.exit.i: ; preds = %.lr.ph.i.i, %20, %18, %12
  %.1.i = phi i1 [ %19, %18 ], [ false, %12 ], [ true, %20 ], [ %30, %.lr.ph.i.i ]
  call void @llvm.lifetime.end.p0(i64 16, ptr nonnull %8) #28
  br label %_ZN4base9EndsWithTINSt7__cxx1112basic_stringIcSt11char_traitsIcESaIcEEEEEbNS_16BasicStringPieceIT_EES9_NS_11CompareCaseE.exit

_ZN4base9EndsWithTINSt7__cxx1112basic_stringIcSt11char_traitsIcESaIcEEEEEbNS_16BasicStringPieceIT_EES9_NS_11CompareCaseE.exit: ; preds = %5, %_ZSt5equalIPKcS1_N4base27CaseInsensitiveCompareASCIIIcEEEbT_S5_T0_T1_.exit.i
  %.0.i = phi i1 [ %.1.i, %_ZSt5equalIPKcS1_N4base27CaseInsensitiveCompareASCIIIcEEEbT_S5_T0_T1_.exit.i ], [ false, %5 ]
  call void @llvm.lifetime.end.p0(i64 16, ptr nonnull %6)
  call void @llvm.lifetime.end.p0(i64 16, ptr nonnull %7)
  ret i1 %.0.i
}